target datalayout = "e-m:e-p270:32:32-p271:32:32-p272:64:64-i64:64-i128:128-f80:128-n8:16:32:64-S128"
target triple = "x86_64-pc-linux-gnu"

%struct.Ivy_Obj_t_ = type { i32, i32, i32, i32, ptr, ptr, ptr, ptr, ptr, ptr, ptr, ptr }

; Function Attrs: inlinehint nounwind uwtable
define internal ptr @Ivy_ObjClassNodeNext(ptr noundef %0) #4 {
  %2 = alloca ptr, align 8
  store ptr %0, ptr %2, align 8, !tbaa !72
  %3 = load ptr, ptr %2, align 8, !tbaa !72
  %4 = getelementptr inbounds nuw %struct.Ivy_Obj_t_, ptr %3, i32 0, i32 8
  %5 = load ptr, ptr %4, align 8, !tbaa !78
  ret ptr %5
}

; Function Attrs: nounwind uwtable
define i32 @Ivy_FraigCountClassNodes(ptr noundef %0) #0 {
  %2 = alloca ptr, align 8
  %3 = alloca ptr, align 8
  %4 = alloca i32, align 4
  store ptr %0, ptr %2, align 8, !tbaa !72
  call void @llvm.lifetime.start.p0(i64 8, ptr %3) #12
  call void @llvm.lifetime.start.p0(i64 4, ptr %4) #12
  store i32 0, ptr %4, align 4, !tbaa !44
  %5 = load ptr, ptr %2, align 8, !tbaa !72
  store ptr %5, ptr %3, align 8, !tbaa !72
  br label %6

6:                                                ; preds = %12, %1
  %7 = load ptr, ptr %3, align 8, !tbaa !72
  %8 = icmp ne ptr %7, null
  br i1 %8, label %9, label %15

9:                                                ; preds = %6
  %10 = load i32, ptr %4, align 4, !tbaa !44
  %11 = add nsw i32 %10, 1
  store i32 %11, ptr %4, align 4, !tbaa !44
  br label %12

12:                                               ; preds = %9
  %13 = load ptr, ptr %3, align 8, !tbaa !72
  %14 = call ptr @Ivy_ObjClassNodeNext(ptr noundef %13)
  store ptr %14, ptr %3, align 8, !tbaa !72
  br label %6, !llvm.loop !192

15:                                               ; preds = %6
  %16 = load i32, ptr %4, align 4, !tbaa !44
  call void @llvm.lifetime.end.p0(i64 4, ptr %4) #12
  call void @llvm.lifetime.end.p0(i64 8, ptr %3) #12
  ret i32 %16
}