; Function Attrs: nofree norecurse nosync nounwind memory(read, inaccessiblemem: none) uwtable
define i32 @Ivy_FraigCountClassNodes(ptr noundef readonly %0) local_unnamed_addr #10 {
  %.not5 = icmp eq ptr %0, null
  br i1 %.not5, label %._crit_edge, label %.lr.ph

.lr.ph:                                           ; preds = %1, %.lr.ph
  %.07 = phi i32 [ %2, %.lr.ph ], [ 0, %1 ]
  %.046 = phi ptr [ %.04.val, %.lr.ph ], [ %0, %1 ]
  %2 = add nuw nsw i32 %.07, 1
  %3 = getelementptr i8, ptr %.046, i64 48
  %.04.val = load ptr, ptr %3, align 8, !tbaa !94
  %.not = icmp eq ptr %.04.val, null
  br i1 %.not, label %._crit_edge, label %.lr.ph, !llvm.loop !122

._crit_edge:                                      ; preds = %.lr.ph, %1
  %.0.lcssa = phi i32 [ 0, %1 ], [ %2, %.lr.ph ]
  ret i32 %.0.lcssa
}